target datalayout = "e-m:e-p270:32:32-p271:32:32-p272:64:64-i64:64-i128:128-f80:128-n8:16:32:64-S128"
target triple = "x86_64-pc-linux-gnu"

%"struct.cv::softdouble" = type { i64 }

; Function Attrs: mustprogress nounwind uwtable
define linkonce_odr hidden void @_ZN2cv10softdoubleC2Ev(ptr noundef nonnull align 8 dereferenceable(8) %0) unnamed_addr #1 comdat align 2 {
  %2 = alloca ptr, align 8
  store ptr %0, ptr %2, align 8
  %3 = load ptr, ptr %2, align 8
  %4 = getelementptr inbounds %"struct.cv::softdouble", ptr %3, i32 0, i32 0
  store i64 0, ptr %4, align 8
  ret void
}

; Function Attrs: mustprogress uwtable
define linkonce_odr hidden void @_ZN2cv10softdouble7fromRawEm(ptr dead_on_unwind noalias writable sret(%"struct.cv::softdouble") align 8 %0, i64 noundef %1) #0 comdat align 2 {
  %3 = alloca ptr, align 8
  %4 = alloca i64, align 8
  store ptr %0, ptr %3, align 8
  store i64 %1, ptr %4, align 8
  call void @_ZN2cv10softdoubleC2Ev(ptr noundef nonnull align 8 dereferenceable(8) %0)
  %5 = load i64, ptr %4, align 8
  %6 = getelementptr inbounds %"struct.cv::softdouble", ptr %0, i32 0, i32 0
  store i64 %5, ptr %6, align 8
  ret void
}

; Function Attrs: mustprogress nounwind uwtable
define internal noundef zeroext i8 @_ZN2cvL29softfloat_countLeadingZeros32Ej(i32 noundef %0) #1 {
  %2 = alloca i32, align 4
  %3 = alloca i8, align 1
  store i32 %0, ptr %2, align 4
  store i8 0, ptr %3, align 1
  %4 = load i32, ptr %2, align 4
  %5 = icmp ult i32 %4, 65536
  br i1 %5, label %6, label %9

6:                                                ; preds = %1
  store i8 16, ptr %3, align 1
  %7 = load i32, ptr %2, align 4
  %8 = shl i32 %7, 16
  store i32 %8, ptr %2, align 4
  br label %9

9:                                                ; preds = %6, %1
  %10 = load i32, ptr %2, align 4
  %11 = icmp ult i32 %10, 16777216
  br i1 %11, label %12, label %19

12:                                               ; preds = %9
  %13 = load i8, ptr %3, align 1
  %14 = zext i8 %13 to i32
  %15 = add nsw i32 %14, 8
  %16 = trunc i32 %15 to i8
  store i8 %16, ptr %3, align 1
  %17 = load i32, ptr %2, align 4
  %18 = shl i32 %17, 8
  store i32 %18, ptr %2, align 4
  br label %19

19:                                               ; preds = %12, %9
  %20 = load i32, ptr %2, align 4
  %21 = lshr i32 %20, 24
  %22 = zext i32 %21 to i64
  %23 = getelementptr inbounds [256 x i8], ptr @_ZN2cvL28softfloat_countLeadingZeros8E, i64 0, i64 %22
  %24 = load i8, ptr %23, align 1
  %25 = zext i8 %24 to i32
  %26 = load i8, ptr %3, align 1
  %27 = zext i8 %26 to i32
  %28 = add nsw i32 %27, %25
  %29 = trunc i32 %28 to i8
  store i8 %29, ptr %3, align 1
  %30 = load i8, ptr %3, align 1
  ret i8 %30
}

; Function Attrs: mustprogress nounwind uwtable
define linkonce_odr hidden noundef nonnull align 8 dereferenceable(8) ptr @_ZN2cv10softdoubleaSERKS0_(ptr noundef nonnull align 8 dereferenceable(8) %0, ptr noundef nonnull align 8 dereferenceable(8) %1) #1 comdat align 2 {
  %3 = alloca ptr, align 8
  %4 = alloca ptr, align 8
  store ptr %0, ptr %3, align 8
  store ptr %1, ptr %4, align 8
  %5 = load ptr, ptr %3, align 8
  %6 = load ptr, ptr %4, align 8
  %7 = icmp ne ptr %6, %5
  br i1 %7, label %8, label %13

8:                                                ; preds = %2
  %9 = load ptr, ptr %4, align 8
  %10 = getelementptr inbounds %"struct.cv::softdouble", ptr %9, i32 0, i32 0
  %11 = load i64, ptr %10, align 8
  %12 = getelementptr inbounds %"struct.cv::softdouble", ptr %5, i32 0, i32 0
  store i64 %11, ptr %12, align 8
  br label %13

13:                                               ; preds = %8, %2
  ret ptr %5
}

; Function Attrs: mustprogress uwtable
define internal void @_ZN2cvL10i32_to_f64Ei(ptr dead_on_unwind noalias writable sret(%"struct.cv::softdouble") align 8 %0, i32 noundef %1) #0 {
  %3 = alloca ptr, align 8
  %4 = alloca i32, align 4
  %5 = alloca i64, align 8
  %6 = alloca i8, align 1
  %7 = alloca i64, align 8
  %8 = alloca i8, align 1
  store ptr %0, ptr %3, align 8
  store i32 %1, ptr %4, align 4
  %9 = load i32, ptr %4, align 4
  %10 = icmp ne i32 %9, 0
  br i1 %10, label %12, label %11

11:                                               ; preds = %2
  store i64 0, ptr %5, align 8
  br label %50

12:                                               ; preds = %2
  %13 = load i32, ptr %4, align 4
  %14 = icmp slt i32 %13, 0
  %15 = zext i1 %14 to i8
  store i8 %15, ptr %6, align 1
  %16 = load i8, ptr %6, align 1
  %17 = trunc i8 %16 to i1
  br i1 %17, label %18, label %23

18:                                               ; preds = %12
  %19 = load i32, ptr %4, align 4
  %20 = sext i32 %19 to i64
  %21 = xor i64 %20, -1
  %22 = add i64 %21, 1
  br label %26

23:                                               ; preds = %12
  %24 = load i32, ptr %4, align 4
  %25 = sext i32 %24 to i64
  br label %26

26:                                               ; preds = %23, %18
  %27 = phi i64 [ %22, %18 ], [ %25, %23 ]
  store i64 %27, ptr %7, align 8
  %28 = load i64, ptr %7, align 8
  %29 = trunc i64 %28 to i32
  %30 = call noundef zeroext i8 @_ZN2cvL29softfloat_countLeadingZeros32Ej(i32 noundef %29)
  %31 = zext i8 %30 to i32
  %32 = add nsw i32 %31, 21
  %33 = trunc i32 %32 to i8
  store i8 %33, ptr %8, align 1
  %34 = load i8, ptr %6, align 1
  %35 = trunc i8 %34 to i1
  %36 = zext i1 %35 to i64
  %37 = shl i64 %36, 63
  %38 = load i8, ptr %8, align 1
  %39 = sext i8 %38 to i32
  %40 = sub nsw i32 1074, %39
  %41 = sext i32 %40 to i64
  %42 = shl i64 %41, 52
  %43 = add i64 %37, %42
  %44 = load i64, ptr %7, align 8
  %45 = load i8, ptr %8, align 1
  %46 = sext i8 %45 to i32
  %47 = zext i32 %46 to i64
  %48 = shl i64 %44, %47
  %49 = add i64 %43, %48
  store i64 %49, ptr %5, align 8
  br label %50

50:                                               ; preds = %26, %11
  %51 = load i64, ptr %5, align 8
  call void @_ZN2cv10softdouble7fromRawEm(ptr dead_on_unwind writable sret(%"struct.cv::softdouble") align 8 %0, i64 noundef %51)
  ret void
}

; Function Attrs: mustprogress uwtable
define void @_ZN2cv10softdoubleC2Ei(ptr noundef nonnull align 8 dereferenceable(8) %0, i32 noundef %1) unnamed_addr #0 align 2 {
  %3 = alloca ptr, align 8
  %4 = alloca i32, align 4
  %5 = alloca %"struct.cv::softdouble", align 8
  store ptr %0, ptr %3, align 8
  store i32 %1, ptr %4, align 4
  %6 = load ptr, ptr %3, align 8
  %7 = load i32, ptr %4, align 4
  call void @_ZN2cvL10i32_to_f64Ei(ptr dead_on_unwind writable sret(%"struct.cv::softdouble") align 8 %5, i32 noundef %7)
  %8 = call noundef nonnull align 8 dereferenceable(8) ptr @_ZN2cv10softdoubleaSERKS0_(ptr noundef nonnull align 8 dereferenceable(8) %6, ptr noundef nonnull align 8 dereferenceable(8) %5)
  ret void
}