; Function Attrs: mustprogress nofree norecurse nosync nounwind willreturn memory(argmem: write) uwtable
define void @_ZN2cv10softdoubleC2Ei(ptr nocapture noundef nonnull writeonly align 8 dereferenceable(8) %0, i32 noundef %1) unnamed_addr #0 align 2 {
  %.not.i = icmp eq i32 %1, 0
  br i1 %.not.i, label %_ZN2cvL10i32_to_f64Ei.exit, label %3

3:                                                ; preds = %2
  %4 = tail call i32 @llvm.abs.i32(i32 %1, i1 false)
  %5 = zext i32 %4 to i64
  %6 = icmp ult i32 %4, 65536
  %7 = shl nuw i32 %4, 16
  %spec.select.i.i = select i1 %6, i32 %7, i32 %4
  %spec.select12.i.i = select i1 %6, i8 16, i8 0
  %8 = icmp ult i32 %spec.select.i.i, 16777216
  %9 = or disjoint i8 %spec.select12.i.i, 8
  %10 = shl nuw i32 %spec.select.i.i, 8
  %.19.i.i = select i1 %8, i32 %10, i32 %spec.select.i.i
  %.1.i.i = select i1 %8, i8 %9, i8 %spec.select12.i.i
  %11 = lshr i32 %.19.i.i, 24
  %12 = zext nneg i32 %11 to i64
  %13 = getelementptr inbounds [256 x i8], ptr @_ZN2cvL28softfloat_countLeadingZeros8E, i64 0, i64 %12
  %14 = load i8, ptr %13, align 1, !noalias !49
  %15 = add nuw nsw i8 %.1.i.i, 21
  %16 = add i8 %15, %14
  %.lobit.i = lshr i32 %1, 31
  %17 = zext nneg i32 %.lobit.i to i64
  %18 = shl nuw i64 %17, 63
  %19 = sext i8 %16 to i32
  %20 = sub nsw i32 1074, %19
  %21 = zext nneg i32 %20 to i64
  %22 = shl nuw nsw i64 %21, 52
  %23 = zext nneg i32 %19 to i64
  %24 = shl i64 %5, %23
  %25 = add i64 %24, %18
  %26 = add i64 %25, %22
  br label %_ZN2cvL10i32_to_f64Ei.exit

_ZN2cvL10i32_to_f64Ei.exit:                       ; preds = %3, %2
  %.0.i = phi i64 [ %26, %3 ], [ 0, %2 ]
  store i64 %.0.i, ptr %0, align 8
  ret void
}